; Function Attrs: mustprogress uwtable
define internal fastcc noundef zeroext i1 @_ZN6duckdbL20TypeHasExactRowCountERKNS_11LogicalTypeE(ptr noundef nonnull align 8 dereferenceable(24) %0) unnamed_addr #3 {
  %2 = load i8, ptr %0, align 8, !tbaa !352
  switch i8 %2, label %11 [
    i8 101, label %.loopexit
    i8 102, label %.loopexit
    i8 100, label %3
  ]

3:                                                ; preds = %1
  %4 = tail call noundef nonnull align 8 dereferenceable(24) ptr @_ZN6duckdb10StructType13GetChildTypesB5cxx11ERKNS_11LogicalTypeE(ptr noundef nonnull align 8 dereferenceable(24) %0)
  %5 = load ptr, ptr %4, align 8, !tbaa !415
  %6 = getelementptr inbounds nuw i8, ptr %4, i64 8
  %7 = load ptr, ptr %6, align 8, !tbaa !415
  %.not12.not = icmp eq ptr %5, %7
  br i1 %.not12.not, label %.loopexit, label %.lr.ph

.lr.ph:                                           ; preds = %3, %.lr.ph
  %.sroa.09.013 = phi ptr [ %10, %.lr.ph ], [ %5, %3 ]
  %8 = getelementptr inbounds nuw i8, ptr %.sroa.09.013, i64 32
  %9 = tail call fastcc noundef zeroext i1 @_ZN6duckdbL20TypeHasExactRowCountERKNS_11LogicalTypeE(ptr noundef nonnull align 8 dereferenceable(24) %8)
  %10 = getelementptr inbounds nuw i8, ptr %.sroa.09.013, i64 56
  %.not.not = icmp eq ptr %10, %7
  %or.cond = select i1 %9, i1 true, i1 %.not.not
  br i1 %or.cond, label %.loopexit, label %.lr.ph

11:                                               ; preds = %1
  br label %.loopexit

.loopexit:                                        ; preds = %.lr.ph, %3, %1, %1, %11
  %.0 = phi i1 [ true, %11 ], [ false, %1 ], [ false, %1 ], [ false, %3 ], [ %9, %.lr.ph ]
  ret i1 %.0
}